target datalayout = "e-m:e-p270:32:32-p271:32:32-p272:64:64-i64:64-i128:128-f80:128-n8:16:32:64-S128"
target triple = "x86_64-pc-linux-gnu"

%struct.luaL_Strbuf = type { ptr, ptr, ptr, ptr, [512 x i8] }

; Function Attrs: mustprogress nounwind uwtable
define dso_local void @_Z13luaL_buffinitP9lua_StateP11luaL_Strbuf(ptr noundef %0, ptr noundef %1) #1 {
  %3 = alloca ptr, align 8
  %4 = alloca ptr, align 8
  store ptr %0, ptr %3, align 8
  store ptr %1, ptr %4, align 8
  %5 = load ptr, ptr %4, align 8
  %6 = getelementptr inbounds %struct.luaL_Strbuf, ptr %5, i32 0, i32 4
  %7 = getelementptr inbounds [512 x i8], ptr %6, i64 0, i64 0
  %8 = load ptr, ptr %4, align 8
  %9 = getelementptr inbounds %struct.luaL_Strbuf, ptr %8, i32 0, i32 0
  store ptr %7, ptr %9, align 8
  %10 = load ptr, ptr %4, align 8
  %11 = getelementptr inbounds %struct.luaL_Strbuf, ptr %10, i32 0, i32 0
  %12 = load ptr, ptr %11, align 8
  %13 = getelementptr inbounds i8, ptr %12, i64 512
  %14 = load ptr, ptr %4, align 8
  %15 = getelementptr inbounds %struct.luaL_Strbuf, ptr %14, i32 0, i32 1
  store ptr %13, ptr %15, align 8
  %16 = load ptr, ptr %3, align 8
  %17 = load ptr, ptr %4, align 8
  %18 = getelementptr inbounds %struct.luaL_Strbuf, ptr %17, i32 0, i32 2
  store ptr %16, ptr %18, align 8
  %19 = load ptr, ptr %4, align 8
  %20 = getelementptr inbounds %struct.luaL_Strbuf, ptr %19, i32 0, i32 3
  store ptr null, ptr %20, align 8
  ret void
}