; Function Attrs: mustprogress nofree norecurse nosync nounwind willreturn memory(argmem: write) uwtable
define dso_local void @_Z13luaL_buffinitP9lua_StateP11luaL_Strbuf(ptr noundef %0, ptr noundef %1) local_unnamed_addr #6 {
  %3 = getelementptr inbounds i8, ptr %1, i64 32
  store ptr %3, ptr %1, align 8
  %4 = getelementptr inbounds i8, ptr %1, i64 544
  %5 = getelementptr inbounds i8, ptr %1, i64 8
  store ptr %4, ptr %5, align 8
  %6 = getelementptr inbounds i8, ptr %1, i64 16
  store ptr %0, ptr %6, align 8
  %7 = getelementptr inbounds i8, ptr %1, i64 24
  store ptr null, ptr %7, align 8
  ret void
}